target datalayout = "e-m:e-p270:32:32-p271:32:32-p272:64:64-i64:64-i128:128-f80:128-n8:16:32:64-S128"
target triple = "x86_64-pc-linux-gnu"

%struct.mi_random_cxt_s = type { [16 x i32], [16 x i32], i32, i8 }

; Function Attrs: nounwind uwtable
define hidden void @_mi_random_init(ptr noundef %0) #0 {
  %2 = alloca ptr, align 8
  store ptr %0, ptr %2, align 8, !tbaa !3
  %3 = load ptr, ptr %2, align 8, !tbaa !3
  call void @mi_random_init_ex(ptr noundef %3, i1 noundef zeroext false) #6
  ret void
}

; Function Attrs: nounwind uwtable
define hidden void @_mi_random_reinit_if_weak(ptr noundef %0) #0 {
  %2 = alloca ptr, align 8
  store ptr %0, ptr %2, align 8, !tbaa !3
  %3 = load ptr, ptr %2, align 8, !tbaa !3
  %4 = getelementptr inbounds nuw %struct.mi_random_cxt_s, ptr %3, i32 0, i32 3
  %5 = load i8, ptr %4, align 4, !tbaa !21, !range !18, !noundef !19
  %6 = trunc i8 %5 to i1
  br i1 %6, label %7, label %9

7:                                                ; preds = %1
  %8 = load ptr, ptr %2, align 8, !tbaa !3
  call void @_mi_random_init(ptr noundef %8) #6
  br label %9

9:                                                ; preds = %7, %1
  ret void
}