; Function Attrs: nounwind uwtable
define hidden void @_mi_random_reinit_if_weak(ptr noundef %0) local_unnamed_addr #1 {
  %2 = getelementptr inbounds nuw i8, ptr %0, i64 132
  %3 = load i8, ptr %2, align 4, !tbaa !16, !range !17, !noundef !18
  %4 = trunc nuw i8 %3 to i1
  br i1 %4, label %5, label %6

5:                                                ; preds = %1
  tail call fastcc void @mi_random_init_ex(ptr noundef nonnull %0, i1 noundef zeroext false) #7
  br label %6

6:                                                ; preds = %5, %1
  ret void
}